Certificate:
    Data:
        Version: 3 (0x2)
        Serial Number: 10 (0xa)
        Signature Algorithm: sha256WithRSAEncryption
        Issuer: C=BA, ST=Banjalucka, L=Gradiska, O=Z, OU=Administrator, CN=Halim_Bacic/emailAddress=bacich95@gmail.com
        Validity
            Not Before: May  1 20:24:20 2020 GMT
            Not After : May  1 20:24:20 2021 GMT
        Subject: C=BA, ST=Doboj, O=Z, OU=Dipl ing elektrotehnike, CN=Bojan_Nikolic/emailAddress=nikolicg@elios.com
        Subject Public Key Info:
            Public Key Algorithm: rsaEncryption
                RSA Public-Key: (1024 bit)
                Modulus:
                    00:a6:eb:9e:e2:90:8b:7d:9d:d9:55:2a:2c:1a:9a:
                    42:f9:41:3c:c9:2a:70:ab:7f:a3:9a:af:06:57:2a:
                    99:a3:e7:b8:b5:54:0f:4a:7f:90:87:63:83:df:07:
                    fc:1c:23:64:3b:48:90:a9:c4:03:7c:f5:6f:2d:1f:
                    e4:b9:02:d1:f1:70:0f:59:28:56:d7:8d:41:82:d4:
                    93:c1:a4:9b:0a:08:f8:8a:fc:c8:1b:38:83:c9:3a:
                    54:b1:d9:ee:e6:0c:6e:94:4f:e4:a0:d5:a1:bd:52:
                    36:47:48:d5:d1:84:eb:bf:47:2f:08:aa:4f:e3:da:
                    ba:84:ca:37:3a:80:3c:17:4f
                Exponent: 65537 (0x10001)
        X509v3 extensions:
            X509v3 Basic Constraints: 
                CA:FALSE
            Netscape Comment: 
                OpenSSL Generated Certificate
            X509v3 Subject Key Identifier: 
                4B:AF:AC:31:5F:D8:7D:3F:EB:A0:28:6B:9E:04:C6:6E:F0:9C:84:DD
            X509v3 Authority Key Identifier: 
                keyid:43:A6:BA:94:E6:16:D9:58:C4:CF:AB:AF:0B:F6:EA:87:FD:7D:94:17

    Signature Algorithm: sha256WithRSAEncryption
         43:d6:81:2e:f1:65:15:0c:3b:40:2b:16:fb:ba:73:bf:59:22:
         b8:7a:5e:0e:65:21:74:0c:92:36:ac:78:3a:c2:c6:f6:72:af:
         08:24:f3:6c:e4:3b:67:34:db:a8:fd:19:f2:f5:de:e0:2f:3c:
         00:01:1a:19:af:ff:ba:4a:b7:14:0f:dd:e0:16:88:85:0a:c1:
         59:58:0a:aa:30:18:e5:55:03:3c:fd:f5:52:a3:93:ad:35:46:
         c3:34:4a:75:08:7e:3e:79:51:8d:ee:48:fa:5e:2c:d2:ca:64:
         88:e8:54:15:44:75:57:62:a8:c7:c3:d5:c5:64:2a:c8:6f:8b:
         35:37:34:67:ac:a2:ed:29:a1:e2:72:34:3b:a9:a3:d8:60:a7:
         fd:67:74:e9:0b:82:b3:f7:67:93:c2:69:a8:f7:13:39:f1:4c:
         bb:ab:ab:88:7a:af:ba:40:ca:a9:6c:2e:84:f3:bf:b7:41:ea:
         ff:e1:2d:e4:f1:13:0d:df:b2:d5:d4:b3:59:4f:61:a4:4c:ec:
         c9:ae:ea:c4:b8:ac:13:27:b7:da:a1:ff:ef:c9:a5:f8:a9:10:
         17:9f:18:a6:21:e3:5c:88:6f:a3:e6:48:d3:77:0e:e3:38:cc:
         c8:19:85:98:4f:8f:48:52:7b:b8:ad:20:71:da:9c:d8:e5:0d:
         23:fc:18:d2
-----BEGIN CERTIFICATE-----
MIIDjDCCAnSgAwIBAgIBCjANBgkqhkiG9w0BAQsFADCBkjELMAkGA1UEBhMCQkEx
EzARBgNVBAgMCkJhbmphbHVja2ExETAPBgNVBAcMCEdyYWRpc2thMQowCAYDVQQK
DAFaMRYwFAYDVQQLDA1BZG1pbmlzdHJhdG9yMRQwEgYDVQQDDAtIYWxpbV9CYWNp
YzEhMB8GCSqGSIb3DQEJARYSYmFjaWNoOTVAZ21haWwuY29tMB4XDTIwMDUwMTIw
MjQyMFoXDTIxMDUwMTIwMjQyMFowgYYxCzAJBgNVBAYTAkJBMQ4wDAYDVQQIDAVE
b2JvajEKMAgGA1UECgwBWjEgMB4GA1UECwwXRGlwbCBpbmcgZWxla3Ryb3RlaG5p
a2UxFjAUBgNVBAMMDUJvamFuX05pa29saWMxITAfBgkqhkiG9w0BCQEWEm5pa29s
aWNnQGVsaW9zLmNvbTCBnzANBgkqhkiG9w0BAQEFAAOBjQAwgYkCgYEApuue4pCL
fZ3ZVSosGppC+UE8ySpwq3+jmq8GVyqZo+e4tVQPSn+Qh2OD3wf8HCNkO0iQqcQD
fPVvLR/kuQLR8XAPWShW141BgtSTwaSbCgj4ivzIGziDyTpUsdnu5gxulE/koNWh
vVI2R0jV0YTrv0cvCKpP49q6hMo3OoA8F08CAwEAAaN7MHkwCQYDVR0TBAIwADAs
BglghkgBhvhCAQ0EHxYdT3BlblNTTCBHZW5lcmF0ZWQgQ2VydGlmaWNhdGUwHQYD
VR0OBBYEFEuvrDFf2H0/66Aoa54Exm7wnITdMB8GA1UdIwQYMBaAFEOmupTmFtlY
xM+rrwv26of9fZQXMA0GCSqGSIb3DQEBCwUAA4IBAQBD1oEu8WUVDDtAKxb7unO/
WSK4el4OZSF0DJI2rHg6wsb2cq8IJPNs5DtnNNuo/Rny9d7gLzwAARoZr/+6SrcU
D93gFoiFCsFZWAqqMBjlVQM8/fVSo5OtNUbDNEp1CH4+eVGN7kj6XizSymSI6FQV
RHVXYqjHw9XFZCrIb4s1NzRnrKLtKaHicjQ7qaPYYKf9Z3TpC4Kz92eTwmmo9xM5
8Uy7q6uIeq+6QMqpbC6E87+3Qer/4S3k8RMN37LV1LNZT2GkTOzJrurEuKwTJ7fa
of/vyaX4qRAXnximIeNciG+j5kjTdw7jOMzIGYWYT49IUnu4rSBx2pzY5Q0j/BjS
-----END CERTIFICATE-----
