Certificate:
    Data:
        Version: 3 (0x2)
        Serial Number: 13 (0xd)
        Signature Algorithm: sha256WithRSAEncryption
        Issuer: C=BA, ST=Banjalucka, L=Gradiska, O=Z, OU=Administrator, CN=Halim_Bacic/emailAddress=bacich95@gmail.com
        Validity
            Not Before: May  7 19:17:27 2020 GMT
            Not After : May  7 19:17:27 2021 GMT
        Subject: C=BA, ST=Banjalucka, O=Z, OU=Opsta Gimnazija, CN=Zeljko Nikolic/emailAddress=zeljon95@hotmail.com
        Subject Public Key Info:
            Public Key Algorithm: rsaEncryption
                RSA Public-Key: (1024 bit)
                Modulus:
                    00:ab:4d:1f:d2:dd:9a:10:36:80:f2:20:8e:a3:65:
                    fd:7d:43:77:48:94:e7:68:0a:39:5e:00:ea:3b:be:
                    50:91:7a:90:24:10:50:f6:75:ec:d3:c3:28:90:6f:
                    80:58:c1:a3:3d:43:71:11:54:0d:91:02:dd:70:91:
                    19:71:ed:da:1d:0c:66:2b:ca:5f:d6:47:86:98:64:
                    61:29:82:81:ea:c7:79:45:76:23:57:91:ad:b6:8b:
                    0b:00:1c:0c:a4:d5:35:24:e9:db:e8:2f:b7:02:e2:
                    22:2a:a3:99:c4:0b:26:b8:78:38:08:af:39:93:e7:
                    c4:1b:ae:48:f9:7c:19:aa:01
                Exponent: 65537 (0x10001)
        X509v3 extensions:
            X509v3 Basic Constraints: 
                CA:FALSE
            Netscape Comment: 
                OpenSSL Generated Certificate
            X509v3 Subject Key Identifier: 
                2C:E1:66:4D:87:F6:3B:7C:67:69:C4:3F:4C:FE:56:9A:B0:0D:15:C4
            X509v3 Authority Key Identifier: 
                keyid:43:A6:BA:94:E6:16:D9:58:C4:CF:AB:AF:0B:F6:EA:87:FD:7D:94:17

    Signature Algorithm: sha256WithRSAEncryption
         98:5a:9f:36:c9:fe:89:ae:6c:c1:9a:f0:13:41:3c:4b:af:fd:
         a7:5c:0b:01:ec:47:f7:7b:b9:4e:59:41:e1:24:8f:b1:b9:72:
         d4:4e:b1:99:49:58:d5:1b:39:8c:18:d2:e1:ba:da:48:ab:cb:
         bc:8a:a3:fd:8b:20:09:e2:a0:4c:2b:63:43:2e:b8:06:fe:be:
         97:a4:bc:8c:1d:85:89:10:98:af:61:b2:0a:d9:b6:72:8d:38:
         70:bb:4d:14:c0:ef:17:f1:06:c3:44:9b:ac:b6:c1:d9:7d:50:
         fe:e6:11:57:12:f2:ae:34:a4:b1:bd:0c:e2:a5:af:78:b3:8c:
         f8:0a:15:c8:99:ae:78:ad:f2:a2:1e:8a:a4:4a:ec:5e:74:ae:
         45:ab:05:72:3f:c5:6e:db:0f:b8:f8:02:c1:ad:dc:98:84:68:
         1d:b8:d0:5f:dd:fd:50:0d:1a:13:46:ab:52:b2:1d:98:f0:95:
         07:27:1d:29:24:64:a5:7e:33:03:7c:33:b9:6a:47:54:c6:d8:
         45:1e:c5:69:06:d8:20:d4:87:90:97:0a:65:91:54:3e:e4:71:
         4e:5a:1f:a3:1e:8e:ed:5f:dc:7a:d2:e8:c1:99:62:ca:e3:81:
         79:f0:c8:35:6a:93:0d:d2:c5:b5:a8:bb:76:22:61:fd:8c:4f:
         d1:63:6c:e1
-----BEGIN CERTIFICATE-----
MIIDjDCCAnSgAwIBAgIBDTANBgkqhkiG9w0BAQsFADCBkjELMAkGA1UEBhMCQkEx
EzARBgNVBAgMCkJhbmphbHVja2ExETAPBgNVBAcMCEdyYWRpc2thMQowCAYDVQQK
DAFaMRYwFAYDVQQLDA1BZG1pbmlzdHJhdG9yMRQwEgYDVQQDDAtIYWxpbV9CYWNp
YzEhMB8GCSqGSIb3DQEJARYSYmFjaWNoOTVAZ21haWwuY29tMB4XDTIwMDUwNzE5
MTcyN1oXDTIxMDUwNzE5MTcyN1owgYYxCzAJBgNVBAYTAkJBMRMwEQYDVQQIDApC
YW5qYWx1Y2thMQowCAYDVQQKDAFaMRgwFgYDVQQLDA9PcHN0YSBHaW1uYXppamEx
FzAVBgNVBAMMDlplbGprbyBOaWtvbGljMSMwIQYJKoZIhvcNAQkBFhR6ZWxqb245
NUBob3RtYWlsLmNvbTCBnzANBgkqhkiG9w0BAQEFAAOBjQAwgYkCgYEAq00f0t2a
EDaA8iCOo2X9fUN3SJTnaAo5XgDqO75QkXqQJBBQ9nXs08MokG+AWMGjPUNxEVQN
kQLdcJEZce3aHQxmK8pf1keGmGRhKYKB6sd5RXYjV5GttosLABwMpNU1JOnb6C+3
AuIiKqOZxAsmuHg4CK85k+fEG65I+XwZqgECAwEAAaN7MHkwCQYDVR0TBAIwADAs
BglghkgBhvhCAQ0EHxYdT3BlblNTTCBHZW5lcmF0ZWQgQ2VydGlmaWNhdGUwHQYD
VR0OBBYEFCzhZk2H9jt8Z2nEP0z+VpqwDRXEMB8GA1UdIwQYMBaAFEOmupTmFtlY
xM+rrwv26of9fZQXMA0GCSqGSIb3DQEBCwUAA4IBAQCYWp82yf6JrmzBmvATQTxL
r/2nXAsB7Ef3e7lOWUHhJI+xuXLUTrGZSVjVGzmMGNLhutpIq8u8iqP9iyAJ4qBM
K2NDLrgG/r6XpLyMHYWJEJivYbIK2bZyjThwu00UwO8X8QbDRJustsHZfVD+5hFX
EvKuNKSxvQzipa94s4z4ChXIma54rfKiHoqkSuxedK5FqwVyP8Vu2w+4+ALBrdyY
hGgduNBf3f1QDRoTRqtSsh2Y8JUHJx0pJGSlfjMDfDO5akdUxthFHsVpBtgg1IeQ
lwplkVQ+5HFOWh+jHo7tX9x60ujBmWLK44F58Mg1apMN0sW1qLt2ImH9jE/RY2zh
-----END CERTIFICATE-----
