Certificate:
    Data:
        Version: 3 (0x2)
        Serial Number: 7 (0x7)
        Signature Algorithm: sha256WithRSAEncryption
        Issuer: C=BA, ST=Banjalucka, L=Gradiska, O=Z, OU=Administrator, CN=Halim_Bacic/emailAddress=bacich95@gmail.com
        Validity
            Not Before: May  1 15:51:01 2020 GMT
            Not After : May  1 15:51:01 2021 GMT
        Subject: C=DE, ST=Bavarska, O=Z, OU=Medicinska sestra, CN=Jasmina_Bacic/emailAddress=jasmina@hospital.mun.de
        Subject Public Key Info:
            Public Key Algorithm: rsaEncryption
                RSA Public-Key: (1024 bit)
                Modulus:
                    00:b7:9e:29:9e:89:a7:db:1c:d9:1a:af:62:ab:b3:
                    8e:57:ac:1a:28:b9:8a:f4:5c:b0:54:c3:60:1c:9a:
                    c7:6b:27:2a:35:c6:20:97:46:1b:a6:98:b1:bc:b6:
                    7a:f1:a5:cc:5c:22:8a:f2:3d:72:02:33:0f:c4:f2:
                    00:ff:37:f2:6a:46:80:44:fa:27:6d:c0:35:fe:9e:
                    95:ca:87:c5:ba:96:20:24:11:3d:90:aa:da:6a:af:
                    a2:ad:bc:40:42:f1:ee:8f:ab:60:f5:3f:19:8d:c7:
                    4f:01:0e:4e:dd:7a:93:5a:cc:31:d4:73:ed:f0:3c:
                    0f:38:7d:d1:be:61:1c:eb:f5
                Exponent: 65537 (0x10001)
        X509v3 extensions:
            X509v3 Basic Constraints: 
                CA:FALSE
            Netscape Comment: 
                OpenSSL Generated Certificate
            X509v3 Subject Key Identifier: 
                DE:05:04:91:85:8A:0D:7C:7C:A8:FF:11:FE:E5:07:02:09:7D:41:33
            X509v3 Authority Key Identifier: 
                keyid:43:A6:BA:94:E6:16:D9:58:C4:CF:AB:AF:0B:F6:EA:87:FD:7D:94:17

    Signature Algorithm: sha256WithRSAEncryption
         bc:e4:21:86:9a:14:fb:c9:0e:bd:80:87:59:6b:19:eb:dd:4f:
         92:a6:e2:90:f1:b2:e2:72:96:85:01:9a:c0:54:9d:71:e7:58:
         c4:3a:2d:7e:15:13:63:cd:6f:1a:81:8e:47:ae:f6:82:e4:b0:
         78:cb:15:7c:a8:3e:07:7e:10:a0:e4:6d:99:d4:42:bd:47:6a:
         1b:c2:6b:f5:83:4c:f3:ef:21:76:84:e7:b5:92:10:de:32:75:
         ff:c1:04:8e:c0:38:26:c8:f8:08:f6:cc:14:2c:bd:9c:71:64:
         73:1c:1b:0a:e6:98:c9:49:a3:fb:f3:a3:aa:37:61:b9:b5:be:
         5a:dc:7c:3f:b6:e9:50:73:71:67:ee:4f:06:23:e9:65:0a:cf:
         5b:5b:f1:14:21:3a:80:8c:99:c7:6e:60:db:82:a1:cf:22:f3:
         9d:bf:31:4b:25:84:60:d7:8f:c0:7e:fd:aa:8e:f5:33:78:fc:
         64:62:a2:ec:01:81:ae:22:c5:d3:e1:57:f5:4e:0e:d3:f4:6d:
         27:e8:97:57:7c:88:29:a1:6c:65:db:74:0e:f6:cc:96:0b:ee:
         6e:e1:ae:f9:dc:6a:3a:63:23:67:a7:40:f8:3e:e9:8c:a5:7d:
         94:d3:27:41:86:67:63:9d:47:30:49:9d:17:8e:82:b4:f2:28:
         49:8e:f8:9c
-----BEGIN CERTIFICATE-----
MIIDjjCCAnagAwIBAgIBBzANBgkqhkiG9w0BAQsFADCBkjELMAkGA1UEBhMCQkEx
EzARBgNVBAgMCkJhbmphbHVja2ExETAPBgNVBAcMCEdyYWRpc2thMQowCAYDVQQK
DAFaMRYwFAYDVQQLDA1BZG1pbmlzdHJhdG9yMRQwEgYDVQQDDAtIYWxpbV9CYWNp
YzEhMB8GCSqGSIb3DQEJARYSYmFjaWNoOTVAZ21haWwuY29tMB4XDTIwMDUwMTE1
NTEwMVoXDTIxMDUwMTE1NTEwMVowgYgxCzAJBgNVBAYTAkRFMREwDwYDVQQIDAhC
YXZhcnNrYTEKMAgGA1UECgwBWjEaMBgGA1UECwwRTWVkaWNpbnNrYSBzZXN0cmEx
FjAUBgNVBAMMDUphc21pbmFfQmFjaWMxJjAkBgkqhkiG9w0BCQEWF2phc21pbmFA
aG9zcGl0YWwubXVuLmRlMIGfMA0GCSqGSIb3DQEBAQUAA4GNADCBiQKBgQC3nime
iafbHNkar2Krs45XrBoouYr0XLBUw2AcmsdrJyo1xiCXRhummLG8tnrxpcxcIory
PXICMw/E8gD/N/JqRoBE+idtwDX+npXKh8W6liAkET2Qqtpqr6KtvEBC8e6Pq2D1
PxmNx08BDk7depNazDHUc+3wPA84fdG+YRzr9QIDAQABo3sweTAJBgNVHRMEAjAA
MCwGCWCGSAGG+EIBDQQfFh1PcGVuU1NMIEdlbmVyYXRlZCBDZXJ0aWZpY2F0ZTAd
BgNVHQ4EFgQU3gUEkYWKDXx8qP8R/uUHAgl9QTMwHwYDVR0jBBgwFoAUQ6a6lOYW
2VjEz6uvC/bqh/19lBcwDQYJKoZIhvcNAQELBQADggEBALzkIYaaFPvJDr2Ah1lr
GevdT5Km4pDxsuJyloUBmsBUnXHnWMQ6LX4VE2PNbxqBjkeu9oLksHjLFXyoPgd+
EKDkbZnUQr1HahvCa/WDTPPvIXaE57WSEN4ydf/BBI7AOCbI+Aj2zBQsvZxxZHMc
GwrmmMlJo/vzo6o3Ybm1vlrcfD+26VBzcWfuTwYj6WUKz1tb8RQhOoCMmcduYNuC
oc8i852/MUslhGDXj8B+/aqO9TN4/GRiouwBga4ixdPhV/VODtP0bSfol1d8iCmh
bGXbdA72zJYL7m7hrvncajpjI2enQPg+6YylfZTTJ0GGZ2OdRzBJnReOgrTyKEmO
+Jw=
-----END CERTIFICATE-----
