Certificate:
    Data:
        Version: 3 (0x2)
        Serial Number: 9 (0x9)
        Signature Algorithm: sha256WithRSAEncryption
        Issuer: C=BA, ST=Banjalucka, L=Gradiska, O=Z, OU=Administrator, CN=Halim_Bacic/emailAddress=bacich95@gmail.com
        Validity
            Not Before: May  1 19:54:32 2020 GMT
            Not After : May  1 19:54:32 2021 GMT
        Subject: C=BA, ST=Banjalucka, O=Z, OU=Programer, CN=Sonja_Ozegovic/emailAddress=sonjaoy@gmail.com
        Subject Public Key Info:
            Public Key Algorithm: rsaEncryption
                RSA Public-Key: (1024 bit)
                Modulus:
                    00:b1:d0:1c:6e:67:18:6c:db:e7:88:7d:8b:6e:27:
                    ee:d8:0c:d8:e6:db:94:d5:e9:b9:89:e2:cb:60:71:
                    79:8a:27:55:2c:f6:4e:c4:db:36:fd:c4:76:c7:b4:
                    c8:23:04:2d:85:99:46:23:61:14:61:da:03:6f:b6:
                    2c:df:0c:a5:8e:bb:93:94:e7:ed:e8:f4:96:bf:b1:
                    14:a0:2f:a0:ac:7d:42:00:d7:92:15:23:87:cd:fe:
                    40:31:6c:ad:de:aa:0c:d3:33:d5:9b:9c:f5:1d:7a:
                    5d:32:18:fe:3c:0f:55:a2:92:79:ed:6d:7d:02:e0:
                    f2:e2:6d:90:84:be:2b:86:45
                Exponent: 65537 (0x10001)
        X509v3 extensions:
            X509v3 Basic Constraints: 
                CA:FALSE
            Netscape Comment: 
                OpenSSL Generated Certificate
            X509v3 Subject Key Identifier: 
                12:44:0A:69:6B:6F:21:9D:67:44:C9:33:88:88:19:4C:FF:63:4E:CC
            X509v3 Authority Key Identifier: 
                keyid:43:A6:BA:94:E6:16:D9:58:C4:CF:AB:AF:0B:F6:EA:87:FD:7D:94:17

    Signature Algorithm: sha256WithRSAEncryption
         63:57:b7:46:c1:8f:f8:4a:6f:e3:fc:71:08:89:cc:2f:be:d7:
         cf:16:25:71:78:a2:1b:03:ee:d8:8e:a5:00:f5:97:93:82:7b:
         f3:5f:b9:4f:66:df:b2:25:2a:6f:97:c6:cb:63:6b:4e:ba:3a:
         ae:03:32:9c:63:a1:c8:68:19:3a:b8:75:37:48:a9:97:62:9b:
         05:5b:82:a7:fd:08:75:3a:ad:87:9e:c9:d9:9b:6a:1c:90:e1:
         ef:bd:25:b0:7a:30:17:19:96:5b:02:cc:6a:71:33:7b:1c:38:
         32:1a:66:99:be:57:dc:3b:ab:33:31:b2:8c:4f:f9:9b:66:49:
         10:7b:e0:1a:3e:32:ae:62:a7:2b:85:e2:bc:84:d2:c3:a2:33:
         a6:f3:fd:2e:5e:05:23:92:3b:e0:08:24:32:5e:c5:61:3d:e8:
         44:56:eb:9c:d3:b2:89:7b:48:5e:07:25:26:9a:91:61:24:33:
         2b:35:a2:70:50:cb:97:1a:94:0c:96:58:db:9f:08:ac:c8:f2:
         63:60:34:b6:3f:a2:44:54:bf:a9:9b:39:d3:79:81:92:a0:a2:
         a2:89:1a:af:b6:6e:f1:e7:1b:6b:5e:f6:6d:36:f9:c9:d0:c9:
         64:77:af:c5:68:0d:9b:8e:11:e6:7c:51:0d:7b:cb:67:e2:82:
         70:9c:fb:f2
-----BEGIN CERTIFICATE-----
MIIDgjCCAmqgAwIBAgIBCTANBgkqhkiG9w0BAQsFADCBkjELMAkGA1UEBhMCQkEx
EzARBgNVBAgMCkJhbmphbHVja2ExETAPBgNVBAcMCEdyYWRpc2thMQowCAYDVQQK
DAFaMRYwFAYDVQQLDA1BZG1pbmlzdHJhdG9yMRQwEgYDVQQDDAtIYWxpbV9CYWNp
YzEhMB8GCSqGSIb3DQEJARYSYmFjaWNoOTVAZ21haWwuY29tMB4XDTIwMDUwMTE5
NTQzMloXDTIxMDUwMTE5NTQzMlowfTELMAkGA1UEBhMCQkExEzARBgNVBAgMCkJh
bmphbHVja2ExCjAIBgNVBAoMAVoxEjAQBgNVBAsMCVByb2dyYW1lcjEXMBUGA1UE
AwwOU29uamFfT3plZ292aWMxIDAeBgkqhkiG9w0BCQEWEXNvbmphb3lAZ21haWwu
Y29tMIGfMA0GCSqGSIb3DQEBAQUAA4GNADCBiQKBgQCx0BxuZxhs2+eIfYtuJ+7Y
DNjm25TV6bmJ4stgcXmKJ1Us9k7E2zb9xHbHtMgjBC2FmUYjYRRh2gNvtizfDKWO
u5OU5+3o9Ja/sRSgL6CsfUIA15IVI4fN/kAxbK3eqgzTM9WbnPUdel0yGP48D1Wi
knntbX0C4PLibZCEviuGRQIDAQABo3sweTAJBgNVHRMEAjAAMCwGCWCGSAGG+EIB
DQQfFh1PcGVuU1NMIEdlbmVyYXRlZCBDZXJ0aWZpY2F0ZTAdBgNVHQ4EFgQUEkQK
aWtvIZ1nRMkziIgZTP9jTswwHwYDVR0jBBgwFoAUQ6a6lOYW2VjEz6uvC/bqh/19
lBcwDQYJKoZIhvcNAQELBQADggEBAGNXt0bBj/hKb+P8cQiJzC++188WJXF4ohsD
7tiOpQD1l5OCe/NfuU9m37IlKm+Xxstja066Oq4DMpxjochoGTq4dTdIqZdimwVb
gqf9CHU6rYeeydmbahyQ4e+9JbB6MBcZllsCzGpxM3scODIaZpm+V9w7qzMxsoxP
+ZtmSRB74Bo+Mq5ipyuF4ryE0sOiM6bz/S5eBSOSO+AIJDJexWE96ERW65zTsol7
SF4HJSaakWEkMys1onBQy5calAyWWNufCKzI8mNgNLY/okRUv6mbOdN5gZKgoqKJ
Gq+2bvHnG2te9m02+cnQyWR3r8VoDZuOEeZ8UQ17y2fignCc+/I=
-----END CERTIFICATE-----
