Certificate:
    Data:
        Version: 3 (0x2)
        Serial Number: 5 (0x5)
        Signature Algorithm: sha256WithRSAEncryption
        Issuer: C=BA, ST=Banjalucka, L=Gradiska, O=Z, OU=Administrator, CN=Halim_Bacic/emailAddress=bacich95@gmail.com
        Validity
            Not Before: May  1 15:38:16 2020 GMT
            Not After : May  1 15:38:16 2021 GMT
        Subject: C=BA, ST=Banjalucka, O=Z, OU=Programer, CN=Halim_Bacic/emailAddress=halim@tiny.com
        Subject Public Key Info:
            Public Key Algorithm: rsaEncryption
                RSA Public-Key: (1024 bit)
                Modulus:
                    00:a6:64:a4:b0:1e:c9:41:8e:82:94:af:85:af:c7:
                    53:ff:2f:ca:9a:8b:d4:92:40:ae:e3:db:5b:15:84:
                    04:f8:6d:c0:03:6b:8a:0e:4c:8d:e3:4c:69:2a:23:
                    9b:8f:19:29:3c:3f:55:a2:91:16:b4:a9:37:61:d8:
                    48:73:e9:76:00:be:5a:5b:4c:aa:df:6c:03:45:10:
                    c1:f6:58:1d:c5:28:77:c2:8d:d5:a3:23:56:3a:35:
                    5d:14:fd:c6:07:c6:c4:94:ce:2f:6b:0c:4f:7e:e7:
                    1c:68:47:1f:28:0d:d6:ca:ef:f7:9e:dc:36:44:52:
                    2b:68:b6:77:04:4c:fd:09:2b
                Exponent: 65537 (0x10001)
        X509v3 extensions:
            X509v3 Basic Constraints: 
                CA:FALSE
            Netscape Comment: 
                OpenSSL Generated Certificate
            X509v3 Subject Key Identifier: 
                C3:DA:0D:67:3B:B7:65:F4:13:07:63:55:5A:76:EB:5D:13:C3:0D:E1
            X509v3 Authority Key Identifier: 
                keyid:43:A6:BA:94:E6:16:D9:58:C4:CF:AB:AF:0B:F6:EA:87:FD:7D:94:17

    Signature Algorithm: sha256WithRSAEncryption
         ad:9e:37:6d:f1:e7:3b:6d:c5:a8:28:48:6e:4e:99:8b:ba:fc:
         fb:ff:24:56:ca:22:85:f0:a0:4f:f2:7e:30:37:70:c4:c6:9a:
         8c:c1:ed:c7:77:19:7a:3c:0f:3e:04:26:8f:7d:ad:45:1a:ce:
         22:d6:bf:36:0b:be:33:c7:ef:37:ff:d7:7b:a4:2d:01:c8:a3:
         3b:63:ba:7f:5b:32:b2:91:44:5a:b1:d7:82:e6:26:29:4c:8b:
         bc:b5:c5:cf:ed:ad:f8:fc:7e:c0:c6:70:d5:5d:58:67:ca:4e:
         d6:0c:23:94:02:06:61:27:ad:43:8a:70:96:d5:f8:e6:57:9e:
         c4:6f:93:12:b6:b5:28:20:b4:d9:8d:b9:dd:c0:20:1d:f9:66:
         60:37:a9:2e:41:6b:54:a2:ee:ab:fb:34:22:9c:b2:a5:91:6d:
         6d:b4:c0:d6:aa:59:86:da:a4:63:40:64:28:b7:66:7a:67:bc:
         c2:92:3c:b7:a9:be:76:04:da:a4:9b:54:e9:cb:de:a2:ea:1f:
         35:f3:2e:55:85:60:fd:ee:5e:39:9e:50:d0:09:84:83:59:24:
         6f:ce:c9:e1:55:28:64:0f:b6:e8:5c:9e:fb:0f:0a:df:a9:b0:
         19:cb:21:cd:25:34:66:65:3c:88:a1:1d:6e:75:0f:29:e6:16:
         a9:4d:41:74
-----BEGIN CERTIFICATE-----
MIIDfDCCAmSgAwIBAgIBBTANBgkqhkiG9w0BAQsFADCBkjELMAkGA1UEBhMCQkEx
EzARBgNVBAgMCkJhbmphbHVja2ExETAPBgNVBAcMCEdyYWRpc2thMQowCAYDVQQK
DAFaMRYwFAYDVQQLDA1BZG1pbmlzdHJhdG9yMRQwEgYDVQQDDAtIYWxpbV9CYWNp
YzEhMB8GCSqGSIb3DQEJARYSYmFjaWNoOTVAZ21haWwuY29tMB4XDTIwMDUwMTE1
MzgxNloXDTIxMDUwMTE1MzgxNlowdzELMAkGA1UEBhMCQkExEzARBgNVBAgMCkJh
bmphbHVja2ExCjAIBgNVBAoMAVoxEjAQBgNVBAsMCVByb2dyYW1lcjEUMBIGA1UE
AwwLSGFsaW1fQmFjaWMxHTAbBgkqhkiG9w0BCQEWDmhhbGltQHRpbnkuY29tMIGf
MA0GCSqGSIb3DQEBAQUAA4GNADCBiQKBgQCmZKSwHslBjoKUr4Wvx1P/L8qai9SS
QK7j21sVhAT4bcADa4oOTI3jTGkqI5uPGSk8P1WikRa0qTdh2Ehz6XYAvlpbTKrf
bANFEMH2WB3FKHfCjdWjI1Y6NV0U/cYHxsSUzi9rDE9+5xxoRx8oDdbK7/ee3DZE
UitotncETP0JKwIDAQABo3sweTAJBgNVHRMEAjAAMCwGCWCGSAGG+EIBDQQfFh1P
cGVuU1NMIEdlbmVyYXRlZCBDZXJ0aWZpY2F0ZTAdBgNVHQ4EFgQUw9oNZzu3ZfQT
B2NVWnbrXRPDDeEwHwYDVR0jBBgwFoAUQ6a6lOYW2VjEz6uvC/bqh/19lBcwDQYJ
KoZIhvcNAQELBQADggEBAK2eN23x5zttxagoSG5OmYu6/Pv/JFbKIoXwoE/yfjA3
cMTGmozB7cd3GXo8Dz4EJo99rUUaziLWvzYLvjPH7zf/13ukLQHIoztjun9bMrKR
RFqx14LmJilMi7y1xc/trfj8fsDGcNVdWGfKTtYMI5QCBmEnrUOKcJbV+OZXnsRv
kxK2tSggtNmNud3AIB35ZmA3qS5Ba1Si7qv7NCKcsqWRbW20wNaqWYbapGNAZCi3
ZnpnvMKSPLepvnYE2qSbVOnL3qLqHzXzLlWFYP3uXjmeUNAJhINZJG/OyeFVKGQP
tuhcnvsPCt+psBnLIc0lNGZlPIihHW51DynmFqlNQXQ=
-----END CERTIFICATE-----
