Certificate:
    Data:
        Version: 3 (0x2)
        Serial Number: 6 (0x6)
        Signature Algorithm: sha256WithRSAEncryption
        Issuer: C=BA, ST=Banjalucka, L=Gradiska, O=Z, OU=Administrator, CN=Halim_Bacic/emailAddress=bacich95@gmail.com
        Validity
            Not Before: May  1 15:40:40 2020 GMT
            Not After : May  1 15:40:40 2021 GMT
        Subject: C=DE, ST=Bavarska, O=Z, OU=Medicinska sestra, CN=Jasmina_Bacic/emailAddress=jasmina.bacic@hospital.mun.de
        Subject Public Key Info:
            Public Key Algorithm: rsaEncryption
                RSA Public-Key: (1024 bit)
                Modulus:
                    00:e3:da:7e:a7:6a:e4:5d:eb:70:33:d4:9c:dd:8e:
                    d5:16:31:3d:0e:ab:c2:60:55:2e:aa:7b:c0:6f:53:
                    2c:19:cd:51:e0:e2:76:0e:c9:dd:5c:6d:14:07:6e:
                    93:67:0f:e1:8e:3f:f3:78:85:81:74:7b:72:c4:b8:
                    e7:b0:85:11:b7:3b:ec:7c:e8:08:8d:2f:43:64:c0:
                    c1:8b:29:a0:89:2d:e6:cf:18:39:98:24:dd:f9:cc:
                    c5:68:9a:09:a4:f3:72:f6:3f:db:69:cc:65:0c:e0:
                    42:ba:56:d6:e0:b5:a0:95:de:7b:d6:a5:93:29:ee:
                    b4:4e:10:ed:ca:38:92:e6:ed
                Exponent: 65537 (0x10001)
        X509v3 extensions:
            X509v3 Basic Constraints: 
                CA:FALSE
            Netscape Comment: 
                OpenSSL Generated Certificate
            X509v3 Subject Key Identifier: 
                E2:E9:85:D0:AE:24:1D:79:9C:27:FB:CE:B1:AF:D6:BF:EB:04:E4:5A
            X509v3 Authority Key Identifier: 
                keyid:43:A6:BA:94:E6:16:D9:58:C4:CF:AB:AF:0B:F6:EA:87:FD:7D:94:17

    Signature Algorithm: sha256WithRSAEncryption
         14:0f:f5:2e:53:4e:88:c0:ae:b4:7d:09:6a:8d:ff:7c:f7:7c:
         a5:db:56:6b:b9:b5:8c:6c:fb:de:a2:49:5b:36:78:5f:84:5b:
         e1:ba:e4:65:ff:94:35:75:c5:82:27:04:29:5f:8b:c4:61:56:
         14:9f:14:d9:82:b6:44:d7:89:e3:48:66:2e:18:1a:52:f8:73:
         4a:d1:ec:19:0b:28:cf:b8:fe:6d:c5:29:d4:ee:ab:27:84:f0:
         7c:1f:ff:54:31:c6:99:29:84:bb:c9:93:b3:9c:ed:36:93:30:
         4a:ec:31:a5:34:14:59:c9:e5:82:6e:94:b5:f1:70:5b:05:d4:
         3b:b3:f1:3e:74:15:ed:6c:20:ca:cb:bf:74:2b:10:74:f8:d5:
         65:1c:50:a1:5f:12:6f:99:ad:6d:1d:a4:79:ba:b6:ef:01:cc:
         ba:03:1e:28:27:a4:a6:78:98:94:04:27:60:0a:97:7f:e3:ff:
         d8:cc:f2:7b:c9:6d:d5:fa:55:61:bf:70:eb:60:82:d3:26:a7:
         5f:51:65:cd:2b:d7:5d:e0:34:1c:60:04:21:01:69:46:49:9f:
         9a:86:2f:ad:51:52:72:31:d0:8c:00:2c:77:db:9f:b4:94:4b:
         45:9a:37:de:95:64:af:1c:9d:cc:4a:c1:54:ce:80:16:e7:f8:
         d3:62:ee:7b
-----BEGIN CERTIFICATE-----
MIIDlDCCAnygAwIBAgIBBjANBgkqhkiG9w0BAQsFADCBkjELMAkGA1UEBhMCQkEx
EzARBgNVBAgMCkJhbmphbHVja2ExETAPBgNVBAcMCEdyYWRpc2thMQowCAYDVQQK
DAFaMRYwFAYDVQQLDA1BZG1pbmlzdHJhdG9yMRQwEgYDVQQDDAtIYWxpbV9CYWNp
YzEhMB8GCSqGSIb3DQEJARYSYmFjaWNoOTVAZ21haWwuY29tMB4XDTIwMDUwMTE1
NDA0MFoXDTIxMDUwMTE1NDA0MFowgY4xCzAJBgNVBAYTAkRFMREwDwYDVQQIDAhC
YXZhcnNrYTEKMAgGA1UECgwBWjEaMBgGA1UECwwRTWVkaWNpbnNrYSBzZXN0cmEx
FjAUBgNVBAMMDUphc21pbmFfQmFjaWMxLDAqBgkqhkiG9w0BCQEWHWphc21pbmEu
YmFjaWNAaG9zcGl0YWwubXVuLmRlMIGfMA0GCSqGSIb3DQEBAQUAA4GNADCBiQKB
gQDj2n6nauRd63Az1JzdjtUWMT0Oq8JgVS6qe8BvUywZzVHg4nYOyd1cbRQHbpNn
D+GOP/N4hYF0e3LEuOewhRG3O+x86AiNL0NkwMGLKaCJLebPGDmYJN35zMVomgmk
83L2P9tpzGUM4EK6VtbgtaCV3nvWpZMp7rROEO3KOJLm7QIDAQABo3sweTAJBgNV
HRMEAjAAMCwGCWCGSAGG+EIBDQQfFh1PcGVuU1NMIEdlbmVyYXRlZCBDZXJ0aWZp
Y2F0ZTAdBgNVHQ4EFgQU4umF0K4kHXmcJ/vOsa/Wv+sE5FowHwYDVR0jBBgwFoAU
Q6a6lOYW2VjEz6uvC/bqh/19lBcwDQYJKoZIhvcNAQELBQADggEBABQP9S5TTojA
rrR9CWqN/3z3fKXbVmu5tYxs+96iSVs2eF+EW+G65GX/lDV1xYInBClfi8RhVhSf
FNmCtkTXieNIZi4YGlL4c0rR7BkLKM+4/m3FKdTuqyeE8Hwf/1QxxpkphLvJk7Oc
7TaTMErsMaU0FFnJ5YJulLXxcFsF1Duz8T50Fe1sIMrLv3QrEHT41WUcUKFfEm+Z
rW0dpHm6tu8BzLoDHignpKZ4mJQEJ2AKl3/j/9jM8nvJbdX6VWG/cOtggtMmp19R
Zc0r113gNBxgBCEBaUZJn5qGL61RUnIx0IwALHfbn7SUS0WaN96VZK8cncxKwVTO
gBbn+NNi7ns=
-----END CERTIFICATE-----
