Certificate:
    Data:
        Version: 3 (0x2)
        Serial Number: 8 (0x8)
        Signature Algorithm: sha256WithRSAEncryption
        Issuer: C=BA, ST=Banjalucka, L=Gradiska, O=Z, OU=Administrator, CN=Halim_Bacic/emailAddress=bacich95@gmail.com
        Validity
            Not Before: May  1 15:56:55 2020 GMT
            Not After : May  1 15:56:55 2021 GMT
        Subject: C=BA, ST=Banjalucka, O=Z, OU=Programer, CN=Halim_Bacic/emailAddress=halim@tiny.com
        Subject Public Key Info:
            Public Key Algorithm: rsaEncryption
                RSA Public-Key: (1024 bit)
                Modulus:
                    00:98:c5:68:ff:74:8a:be:e8:7c:3b:2c:c6:c4:f8:
                    cd:5e:e4:d7:cd:97:5d:a8:54:f8:34:0d:79:0e:fa:
                    46:13:19:4a:a8:59:7a:81:10:4f:b6:ef:8b:c0:9c:
                    01:61:5a:60:e1:fa:ae:aa:98:d7:bc:42:1a:72:39:
                    8c:cb:e9:1d:0d:a6:a0:a8:ce:a8:93:3f:a7:0c:98:
                    7b:1c:f0:4c:8a:41:57:50:de:58:05:13:d7:26:b9:
                    69:aa:46:ae:38:14:65:9d:2c:30:ac:b4:64:f5:ee:
                    43:24:2e:fa:fc:07:35:9d:96:79:43:07:ab:e7:de:
                    60:eb:c1:b1:fa:fd:a0:60:c7
                Exponent: 65537 (0x10001)
        X509v3 extensions:
            X509v3 Basic Constraints: 
                CA:FALSE
            Netscape Comment: 
                OpenSSL Generated Certificate
            X509v3 Subject Key Identifier: 
                F4:03:12:5B:0D:C3:BB:45:FA:9F:14:43:2C:1E:D8:F6:C6:65:4F:1A
            X509v3 Authority Key Identifier: 
                keyid:43:A6:BA:94:E6:16:D9:58:C4:CF:AB:AF:0B:F6:EA:87:FD:7D:94:17

    Signature Algorithm: sha256WithRSAEncryption
         45:fa:cd:e4:aa:2a:fe:64:c6:52:e1:60:c7:7d:a0:e0:63:33:
         4a:30:9b:c9:ad:ca:80:0d:00:66:44:c4:50:55:a5:f1:71:f9:
         95:fd:b9:12:c7:89:1e:b5:68:4b:40:0d:ef:d8:87:fd:12:76:
         56:45:5c:c1:06:f1:6a:d9:89:37:74:0b:77:cb:42:03:ef:64:
         88:54:14:de:d6:4e:53:a1:f3:24:84:4c:7f:1e:92:28:52:8a:
         2c:be:8e:fc:bf:5e:fa:12:f7:26:1e:d7:ec:e3:33:4f:35:ad:
         38:ed:b7:e7:b1:dd:c0:a3:1a:5d:d3:c0:f5:9c:e8:32:1b:66:
         21:2d:54:af:78:db:8e:6d:f9:0b:28:f0:69:22:56:70:46:20:
         03:77:1b:52:20:5d:59:57:48:74:5d:52:af:8b:18:96:dc:1a:
         a0:ef:d4:47:fd:cd:f7:3a:e4:91:38:a5:8c:25:eb:1e:48:b6:
         cf:0d:ef:16:f7:54:ff:0e:32:d4:5f:21:ca:bf:2f:e9:29:05:
         ae:63:47:93:af:cc:95:f6:06:9e:c5:95:f5:0d:8d:24:c7:64:
         f2:d1:ed:43:9d:a4:7e:b4:18:29:cc:47:06:77:93:cf:9e:16:
         38:b1:ee:bb:90:30:2d:0b:8d:8c:2c:d4:52:27:86:3e:eb:1d:
         0c:af:c8:a6
-----BEGIN CERTIFICATE-----
MIIDfDCCAmSgAwIBAgIBCDANBgkqhkiG9w0BAQsFADCBkjELMAkGA1UEBhMCQkEx
EzARBgNVBAgMCkJhbmphbHVja2ExETAPBgNVBAcMCEdyYWRpc2thMQowCAYDVQQK
DAFaMRYwFAYDVQQLDA1BZG1pbmlzdHJhdG9yMRQwEgYDVQQDDAtIYWxpbV9CYWNp
YzEhMB8GCSqGSIb3DQEJARYSYmFjaWNoOTVAZ21haWwuY29tMB4XDTIwMDUwMTE1
NTY1NVoXDTIxMDUwMTE1NTY1NVowdzELMAkGA1UEBhMCQkExEzARBgNVBAgMCkJh
bmphbHVja2ExCjAIBgNVBAoMAVoxEjAQBgNVBAsMCVByb2dyYW1lcjEUMBIGA1UE
AwwLSGFsaW1fQmFjaWMxHTAbBgkqhkiG9w0BCQEWDmhhbGltQHRpbnkuY29tMIGf
MA0GCSqGSIb3DQEBAQUAA4GNADCBiQKBgQCYxWj/dIq+6Hw7LMbE+M1e5NfNl12o
VPg0DXkO+kYTGUqoWXqBEE+274vAnAFhWmDh+q6qmNe8QhpyOYzL6R0NpqCozqiT
P6cMmHsc8EyKQVdQ3lgFE9cmuWmqRq44FGWdLDCstGT17kMkLvr8BzWdlnlDB6vn
3mDrwbH6/aBgxwIDAQABo3sweTAJBgNVHRMEAjAAMCwGCWCGSAGG+EIBDQQfFh1P
cGVuU1NMIEdlbmVyYXRlZCBDZXJ0aWZpY2F0ZTAdBgNVHQ4EFgQU9AMSWw3Du0X6
nxRDLB7Y9sZlTxowHwYDVR0jBBgwFoAUQ6a6lOYW2VjEz6uvC/bqh/19lBcwDQYJ
KoZIhvcNAQELBQADggEBAEX6zeSqKv5kxlLhYMd9oOBjM0owm8mtyoANAGZExFBV
pfFx+ZX9uRLHiR61aEtADe/Yh/0SdlZFXMEG8WrZiTd0C3fLQgPvZIhUFN7WTlOh
8ySETH8ekihSiiy+jvy/XvoS9yYe1+zjM081rTjtt+ex3cCjGl3TwPWc6DIbZiEt
VK94245t+Qso8GkiVnBGIAN3G1IgXVlXSHRdUq+LGJbcGqDv1Ef9zfc65JE4pYwl
6x5Its8N7xb3VP8OMtRfIcq/L+kpBa5jR5OvzJX2Bp7FlfUNjSTHZPLR7UOdpH60
GCnMRwZ3k8+eFjix7ruQMC0LjYws1FInhj7rHQyvyKY=
-----END CERTIFICATE-----
