Certificate:
    Data:
        Version: 3 (0x2)
        Serial Number: 11 (0xb)
        Signature Algorithm: sha256WithRSAEncryption
        Issuer: C=BA, ST=Banjalucka, L=Gradiska, O=Z, OU=Administrator, CN=Halim_Bacic/emailAddress=bacich95@gmail.com
        Validity
            Not Before: May  7 19:00:41 2020 GMT
            Not After : May  7 19:00:41 2021 GMT
        Subject: C=BA, ST=Banjalucka, O=Z, OU=Tiny, CN=Halim_Bacic/emailAddress=bacich95@gmail.com
        Subject Public Key Info:
            Public Key Algorithm: rsaEncryption
                RSA Public-Key: (1024 bit)
                Modulus:
                    00:9f:95:a5:1c:b7:12:47:03:37:04:13:08:bd:90:
                    61:5c:b6:81:42:d3:83:92:51:83:af:6d:f7:8f:00:
                    9e:c3:75:f6:02:03:18:c4:63:47:b1:f4:5c:f3:f8:
                    a5:b1:f2:2c:bb:98:21:ce:85:2a:7e:6c:1a:8f:49:
                    04:3c:07:2c:7b:10:b9:7c:45:3a:6e:58:d6:ee:5d:
                    26:f6:10:c4:f3:aa:e0:65:34:af:8c:99:b9:99:37:
                    8d:3e:63:5e:96:ff:8e:10:ac:16:22:eb:fa:70:af:
                    ff:bd:a6:86:7c:31:bf:0c:72:38:6c:bf:18:5e:67:
                    99:f2:47:bb:ee:15:76:7b:55
                Exponent: 65537 (0x10001)
        X509v3 extensions:
            X509v3 Basic Constraints: 
                CA:FALSE
            Netscape Comment: 
                OpenSSL Generated Certificate
            X509v3 Subject Key Identifier: 
                19:1A:40:C8:84:12:F1:A1:A2:49:21:8A:E2:54:7D:18:C4:8B:5C:F8
            X509v3 Authority Key Identifier: 
                keyid:43:A6:BA:94:E6:16:D9:58:C4:CF:AB:AF:0B:F6:EA:87:FD:7D:94:17

    Signature Algorithm: sha256WithRSAEncryption
         73:4e:a1:60:4b:a1:f5:cc:21:4c:73:48:4b:89:af:30:56:ad:
         e7:2a:91:99:d4:e0:68:29:76:fd:22:d8:e1:85:84:e1:61:13:
         6a:14:a0:dc:21:b3:96:2a:2e:85:3d:1e:68:6b:ac:66:b0:f6:
         9f:8c:57:f1:60:0d:89:55:47:9e:23:12:8a:74:4a:3f:12:5e:
         e8:9f:c1:8c:5e:60:a0:a2:c7:23:a6:6d:24:3f:a0:cb:c4:76:
         9b:af:f7:0f:e8:17:b8:42:be:31:4d:77:09:cf:1b:d5:70:44:
         5f:0d:53:34:f3:6d:ce:86:c8:11:74:6e:16:97:af:1a:3e:3e:
         2e:e6:c2:d1:a0:9b:c9:7f:53:1b:2b:d1:e9:5a:80:77:01:aa:
         59:fc:68:4d:41:e1:89:18:a9:07:15:1f:fd:ee:52:fb:7a:c2:
         7d:57:a9:cf:49:ab:a0:3b:90:c4:f8:3e:5e:a5:af:e1:0f:27:
         dd:1e:f0:5d:3b:7e:28:a5:68:ae:02:74:66:93:80:a6:97:38:
         22:5c:97:a3:33:86:0b:ef:f2:21:2b:ba:21:90:70:0c:d0:df:
         be:4e:21:41:bb:22:9f:be:ac:a6:e4:84:1d:95:9e:ec:8c:a4:
         2e:55:cb:48:4f:35:62:20:01:42:01:f8:18:69:b6:af:89:8d:
         f3:77:40:69
-----BEGIN CERTIFICATE-----
MIIDezCCAmOgAwIBAgIBCzANBgkqhkiG9w0BAQsFADCBkjELMAkGA1UEBhMCQkEx
EzARBgNVBAgMCkJhbmphbHVja2ExETAPBgNVBAcMCEdyYWRpc2thMQowCAYDVQQK
DAFaMRYwFAYDVQQLDA1BZG1pbmlzdHJhdG9yMRQwEgYDVQQDDAtIYWxpbV9CYWNp
YzEhMB8GCSqGSIb3DQEJARYSYmFjaWNoOTVAZ21haWwuY29tMB4XDTIwMDUwNzE5
MDA0MVoXDTIxMDUwNzE5MDA0MVowdjELMAkGA1UEBhMCQkExEzARBgNVBAgMCkJh
bmphbHVja2ExCjAIBgNVBAoMAVoxDTALBgNVBAsMBFRpbnkxFDASBgNVBAMMC0hh
bGltX0JhY2ljMSEwHwYJKoZIhvcNAQkBFhJiYWNpY2g5NUBnbWFpbC5jb20wgZ8w
DQYJKoZIhvcNAQEBBQADgY0AMIGJAoGBAJ+VpRy3EkcDNwQTCL2QYVy2gULTg5JR
g69t948AnsN19gIDGMRjR7H0XPP4pbHyLLuYIc6FKn5sGo9JBDwHLHsQuXxFOm5Y
1u5dJvYQxPOq4GU0r4yZuZk3jT5jXpb/jhCsFiLr+nCv/72mhnwxvwxyOGy/GF5n
mfJHu+4VdntVAgMBAAGjezB5MAkGA1UdEwQCMAAwLAYJYIZIAYb4QgENBB8WHU9w
ZW5TU0wgR2VuZXJhdGVkIENlcnRpZmljYXRlMB0GA1UdDgQWBBQZGkDIhBLxoaJJ
IYriVH0YxItc+DAfBgNVHSMEGDAWgBRDprqU5hbZWMTPq68L9uqH/X2UFzANBgkq
hkiG9w0BAQsFAAOCAQEAc06hYEuh9cwhTHNIS4mvMFat5yqRmdTgaCl2/SLY4YWE
4WETahSg3CGzliouhT0eaGusZrD2n4xX8WANiVVHniMSinRKPxJe6J/BjF5goKLH
I6ZtJD+gy8R2m6/3D+gXuEK+MU13Cc8b1XBEXw1TNPNtzobIEXRuFpevGj4+LubC
0aCbyX9TGyvR6VqAdwGqWfxoTUHhiRipBxUf/e5S+3rCfVepz0mroDuQxPg+XqWv
4Q8n3R7wXTt+KKVorgJ0ZpOAppc4IlyXozOGC+/yISu6IZBwDNDfvk4hQbsin76s
puSEHZWe7IykLlXLSE81YiABQgH4GGm2r4mN83dAaQ==
-----END CERTIFICATE-----
