Certificate:
    Data:
        Version: 3 (0x2)
        Serial Number: 12 (0xc)
        Signature Algorithm: sha256WithRSAEncryption
        Issuer: C=BA, ST=Banjalucka, L=Gradiska, O=Z, OU=Administrator, CN=Halim_Bacic/emailAddress=bacich95@gmail.com
        Validity
            Not Before: May  7 19:11:13 2020 GMT
            Not After : May  7 19:11:13 2021 GMT
        Subject: C=DE, ST=Bavarska, O=Z, OU=Munich Hospital, CN=Jasmina_Bacic/emailAddress=jasmina@mun.hospital.de
        Subject Public Key Info:
            Public Key Algorithm: rsaEncryption
                RSA Public-Key: (1024 bit)
                Modulus:
                    00:be:02:28:f9:6c:10:c8:4c:e1:b6:3d:a0:6e:ab:
                    2f:d6:12:b1:62:e0:4e:c7:6f:55:90:ab:fe:e4:31:
                    6b:4a:9a:e2:ad:be:f2:24:a6:5b:2d:35:27:87:79:
                    22:47:fc:5a:99:a3:94:51:70:60:34:d3:7a:ae:97:
                    79:7f:04:0d:38:53:a2:79:3f:2e:40:e0:a4:c4:b5:
                    bd:92:0a:a2:63:90:a3:ff:3f:73:3c:da:74:71:c9:
                    aa:fd:c1:f4:60:8c:6e:87:86:17:d5:2c:dd:c9:34:
                    1b:18:d3:cf:63:05:fc:e7:b8:9d:7c:11:6f:f8:4c:
                    96:5c:8a:83:cb:48:cc:75:8d
                Exponent: 65537 (0x10001)
        X509v3 extensions:
            X509v3 Basic Constraints: 
                CA:FALSE
            Netscape Comment: 
                OpenSSL Generated Certificate
            X509v3 Subject Key Identifier: 
                46:97:BE:10:FA:CA:3E:DD:CF:94:27:B7:7E:5D:0B:E6:53:F1:40:5D
            X509v3 Authority Key Identifier: 
                keyid:43:A6:BA:94:E6:16:D9:58:C4:CF:AB:AF:0B:F6:EA:87:FD:7D:94:17

    Signature Algorithm: sha256WithRSAEncryption
         7e:de:ec:3e:50:e3:a7:81:bf:6c:e9:a4:0f:40:79:04:cb:c8:
         a2:58:35:9d:5d:cf:ce:20:4b:2f:10:63:2d:4c:79:be:7f:ff:
         96:3e:e7:36:4a:6b:7a:d2:10:b6:5a:67:69:de:10:5c:e6:71:
         19:10:4b:89:62:01:99:08:39:f4:04:1d:a3:d2:66:a0:cc:9d:
         14:9c:cf:03:ed:c5:27:c1:bf:c5:5a:ec:4f:79:a2:01:c2:81:
         38:1d:49:e6:56:e1:8e:a7:80:92:c6:90:4d:d0:4e:50:30:1e:
         1b:f4:bd:99:47:4a:67:65:bc:11:98:56:ae:30:84:d0:ac:b1:
         65:94:7f:74:38:e0:7f:a2:eb:a1:0b:1e:69:67:a0:94:f3:74:
         7b:b6:3c:6d:6b:92:d9:2c:84:1d:5d:1a:24:5f:27:a9:48:f6:
         53:3e:2c:8b:48:b0:c0:38:5d:91:a7:17:90:ec:2e:2d:4b:a6:
         da:64:af:30:88:9f:01:f9:a5:d3:21:69:4b:97:b7:67:a9:0c:
         74:4e:5b:43:3e:2b:6e:a0:51:04:25:e7:ee:e6:90:ab:2a:24:
         cc:c9:0a:89:86:e6:89:5f:fb:09:9e:b0:97:73:1d:51:8b:4c:
         22:06:ee:5c:eb:02:4d:ff:c6:62:a2:0e:88:d5:ad:d0:6d:9a:
         6d:3c:49:7c
-----BEGIN CERTIFICATE-----
MIIDjDCCAnSgAwIBAgIBDDANBgkqhkiG9w0BAQsFADCBkjELMAkGA1UEBhMCQkEx
EzARBgNVBAgMCkJhbmphbHVja2ExETAPBgNVBAcMCEdyYWRpc2thMQowCAYDVQQK
DAFaMRYwFAYDVQQLDA1BZG1pbmlzdHJhdG9yMRQwEgYDVQQDDAtIYWxpbV9CYWNp
YzEhMB8GCSqGSIb3DQEJARYSYmFjaWNoOTVAZ21haWwuY29tMB4XDTIwMDUwNzE5
MTExM1oXDTIxMDUwNzE5MTExM1owgYYxCzAJBgNVBAYTAkRFMREwDwYDVQQIDAhC
YXZhcnNrYTEKMAgGA1UECgwBWjEYMBYGA1UECwwPTXVuaWNoIEhvc3BpdGFsMRYw
FAYDVQQDDA1KYXNtaW5hX0JhY2ljMSYwJAYJKoZIhvcNAQkBFhdqYXNtaW5hQG11
bi5ob3NwaXRhbC5kZTCBnzANBgkqhkiG9w0BAQEFAAOBjQAwgYkCgYEAvgIo+WwQ
yEzhtj2gbqsv1hKxYuBOx29VkKv+5DFrSprirb7yJKZbLTUnh3kiR/xamaOUUXBg
NNN6rpd5fwQNOFOieT8uQOCkxLW9kgqiY5Cj/z9zPNp0ccmq/cH0YIxuh4YX1Szd
yTQbGNPPYwX857idfBFv+EyWXIqDy0jMdY0CAwEAAaN7MHkwCQYDVR0TBAIwADAs
BglghkgBhvhCAQ0EHxYdT3BlblNTTCBHZW5lcmF0ZWQgQ2VydGlmaWNhdGUwHQYD
VR0OBBYEFEaXvhD6yj7dz5Qnt35dC+ZT8UBdMB8GA1UdIwQYMBaAFEOmupTmFtlY
xM+rrwv26of9fZQXMA0GCSqGSIb3DQEBCwUAA4IBAQB+3uw+UOOngb9s6aQPQHkE
y8iiWDWdXc/OIEsvEGMtTHm+f/+WPuc2Smt60hC2Wmdp3hBc5nEZEEuJYgGZCDn0
BB2j0magzJ0UnM8D7cUnwb/FWuxPeaIBwoE4HUnmVuGOp4CSxpBN0E5QMB4b9L2Z
R0pnZbwRmFauMITQrLFllH90OOB/ouuhCx5pZ6CU83R7tjxta5LZLIQdXRokXyep
SPZTPiyLSLDAOF2RpxeQ7C4tS6baZK8wiJ8B+aXTIWlLl7dnqQx0TltDPituoFEE
Jefu5pCrKiTMyQqJhuaJX/sJnrCXcx1Ri0wiBu5c6wJN/8Ziog6I1a3QbZptPEl8
-----END CERTIFICATE-----
