Certificate:
    Data:
        Version: 3 (0x2)
        Serial Number: 14 (0xe)
        Signature Algorithm: sha256WithRSAEncryption
        Issuer: C=BA, ST=Banjalucka, L=Gradiska, O=Z, OU=Administrator, CN=Halim_Bacic/emailAddress=bacich95@gmail.com
        Validity
            Not Before: May  7 20:45:40 2020 GMT
            Not After : May  7 20:45:40 2021 GMT
        Subject: C=BA, ST=Kanton Sarajevo, O=Z, OU=TinyCode, CN=Sonja_Ozegovic/emailAddress=sonjao@tiny.com
        Subject Public Key Info:
            Public Key Algorithm: rsaEncryption
                RSA Public-Key: (1024 bit)
                Modulus:
                    00:a1:90:8a:dd:1f:7c:c4:79:56:52:85:11:71:72:
                    cb:a0:6b:7b:11:60:2d:a1:6a:25:54:b0:9a:0e:99:
                    84:3e:9e:69:43:97:d0:8d:62:22:9a:b4:36:82:93:
                    f5:1e:1b:e3:de:07:19:de:e9:1d:9c:76:72:0b:05:
                    9b:38:06:b7:4e:a9:80:92:82:47:fa:18:07:cc:d6:
                    5a:89:28:c3:e4:81:b4:24:b9:9b:87:43:f5:34:e2:
                    3d:25:47:0b:96:97:e9:95:2a:30:a3:35:5e:08:ee:
                    f9:99:46:f5:ff:71:84:7d:cc:c1:ca:cd:52:9d:6b:
                    b4:54:67:a4:70:8c:fb:97:69
                Exponent: 65537 (0x10001)
        X509v3 extensions:
            X509v3 Basic Constraints: 
                CA:FALSE
            Netscape Comment: 
                OpenSSL Generated Certificate
            X509v3 Subject Key Identifier: 
                76:DD:E7:A5:02:A5:D3:9C:3E:47:BF:22:AC:DF:29:91:0B:43:24:8F
            X509v3 Authority Key Identifier: 
                keyid:43:A6:BA:94:E6:16:D9:58:C4:CF:AB:AF:0B:F6:EA:87:FD:7D:94:17

    Signature Algorithm: sha256WithRSAEncryption
         81:5f:8b:d8:1c:42:72:68:85:04:1f:2a:ae:d3:54:ab:0a:df:
         59:b5:4f:91:d4:97:36:5b:16:e8:de:0e:82:6e:f8:b7:08:37:
         bd:77:95:5a:9e:5d:88:b8:7e:4a:ae:a0:18:be:36:58:a3:b0:
         1b:e6:5c:13:68:75:81:41:ba:16:4d:70:ae:47:2a:9f:13:0e:
         61:ef:21:7e:f8:6b:fa:33:7d:e4:58:34:ad:5b:e1:ba:4d:3c:
         07:c6:1f:1b:9a:56:b4:69:20:44:ee:a5:5d:c8:fd:91:9a:d7:
         7e:85:40:12:31:46:e4:7d:6d:75:de:6e:e3:97:76:72:04:46:
         7e:64:b4:8d:cd:33:96:91:fe:4c:13:15:45:a7:b8:6b:b1:4b:
         3c:05:47:f6:81:ee:74:99:63:1c:e3:5a:ca:aa:8d:fc:93:36:
         40:de:7f:e9:e6:23:29:8b:6e:3c:ff:40:6a:fd:d0:c8:11:09:
         41:ae:df:eb:98:ca:0a:3e:77:1b:96:9c:f6:74:af:60:e2:f9:
         20:34:1a:eb:14:4f:d2:cf:b8:df:88:e9:e0:ce:dc:f6:93:81:
         94:41:54:b0:6b:91:c7:a1:53:85:1d:83:8e:af:72:32:1e:c9:
         ed:78:15:1b:60:8c:ee:13:b8:fc:71:5e:99:0f:81:79:f9:c0:
         ef:01:bd:a9
-----BEGIN CERTIFICATE-----
MIIDhDCCAmygAwIBAgIBDjANBgkqhkiG9w0BAQsFADCBkjELMAkGA1UEBhMCQkEx
EzARBgNVBAgMCkJhbmphbHVja2ExETAPBgNVBAcMCEdyYWRpc2thMQowCAYDVQQK
DAFaMRYwFAYDVQQLDA1BZG1pbmlzdHJhdG9yMRQwEgYDVQQDDAtIYWxpbV9CYWNp
YzEhMB8GCSqGSIb3DQEJARYSYmFjaWNoOTVAZ21haWwuY29tMB4XDTIwMDUwNzIw
NDU0MFoXDTIxMDUwNzIwNDU0MFowfzELMAkGA1UEBhMCQkExGDAWBgNVBAgMD0th
bnRvbiBTYXJhamV2bzEKMAgGA1UECgwBWjERMA8GA1UECwwIVGlueUNvZGUxFzAV
BgNVBAMMDlNvbmphX096ZWdvdmljMR4wHAYJKoZIhvcNAQkBFg9zb25qYW9AdGlu
eS5jb20wgZ8wDQYJKoZIhvcNAQEBBQADgY0AMIGJAoGBAKGQit0ffMR5VlKFEXFy
y6BrexFgLaFqJVSwmg6ZhD6eaUOX0I1iIpq0NoKT9R4b494HGd7pHZx2cgsFmzgG
t06pgJKCR/oYB8zWWokow+SBtCS5m4dD9TTiPSVHC5aX6ZUqMKM1Xgju+ZlG9f9x
hH3MwcrNUp1rtFRnpHCM+5dpAgMBAAGjezB5MAkGA1UdEwQCMAAwLAYJYIZIAYb4
QgENBB8WHU9wZW5TU0wgR2VuZXJhdGVkIENlcnRpZmljYXRlMB0GA1UdDgQWBBR2
3eelAqXTnD5HvyKs3ymRC0MkjzAfBgNVHSMEGDAWgBRDprqU5hbZWMTPq68L9uqH
/X2UFzANBgkqhkiG9w0BAQsFAAOCAQEAgV+L2BxCcmiFBB8qrtNUqwrfWbVPkdSX
NlsW6N4Ogm74twg3vXeVWp5diLh+Sq6gGL42WKOwG+ZcE2h1gUG6Fk1wrkcqnxMO
Ye8hfvhr+jN95Fg0rVvhuk08B8YfG5pWtGkgRO6lXcj9kZrXfoVAEjFG5H1tdd5u
45d2cgRGfmS0jc0zlpH+TBMVRae4a7FLPAVH9oHudJljHONayqqN/JM2QN5/6eYj
KYtuPP9Aav3QyBEJQa7f65jKCj53G5ac9nSvYOL5IDQa6xRP0s+434jp4M7c9pOB
lEFUsGuRx6FThR2Djq9yMh7J7XgVG2CM7hO4/HFemQ+BefnA7wG9qQ==
-----END CERTIFICATE-----
